target datalayout = "e-m:e-p270:32:32-p271:32:32-p272:64:64-i64:64-i128:128-f80:128-n8:16:32:64-S128"
target triple = "x86_64-pc-linux-gnu"

%struct.AVFilterContext = type { ptr, ptr, ptr, ptr, ptr, i32, ptr, ptr, i32, ptr, ptr, i32, i32, ptr, ptr, ptr, ptr, i32, ptr, i32, i32 }
%struct.BlendContext = type { ptr, %struct.FFFrameSync, i32, i32, i32, ptr, i32, double, i32, [4 x %struct.FilterParams], i32, ptr, i32 }
%struct.FFFrameSync = type { ptr, ptr, i32, %struct.AVRational, i64, ptr, ptr, i32, i32, i8, i8, ptr, i32, i32, i32, i32 }
%struct.AVRational = type { i32, i32 }
%struct.FilterParams = type { i32, double, ptr, ptr, ptr }

@var_names = internal constant [13 x ptr] [ptr @.str.8, ptr @.str.9, ptr @.str.10, ptr @.str.11, ptr @.str.12, ptr @.str.13, ptr @.str.14, ptr @.str.15, ptr @.str.16, ptr @.str.17, ptr @.str.18, ptr @.str.19, ptr null], align 16

; Function Attrs: nounwind uwtable
define internal void @ff_blend_init(ptr noundef %0, i32 noundef %1) #0 {
  %3 = alloca ptr, align 8
  %4 = alloca i32, align 4
  store ptr %0, ptr %3, align 8, !tbaa !77
  store i32 %1, ptr %4, align 4, !tbaa !37
  %5 = load i32, ptr %4, align 4, !tbaa !37
  switch i32 %5, label %20 [
    i32 8, label %6
    i32 9, label %8
    i32 10, label %10
    i32 12, label %12
    i32 14, label %14
    i32 16, label %16
    i32 32, label %18
  ]

6:                                                ; preds = %2
  %7 = load ptr, ptr %3, align 8, !tbaa !77
  call void @init_blend_func_8_8bit(ptr noundef %7) #14
  br label %20

8:                                                ; preds = %2
  %9 = load ptr, ptr %3, align 8, !tbaa !77
  call void @init_blend_func_9_16bit(ptr noundef %9) #14
  br label %20

10:                                               ; preds = %2
  %11 = load ptr, ptr %3, align 8, !tbaa !77
  call void @init_blend_func_10_16bit(ptr noundef %11) #14
  br label %20

12:                                               ; preds = %2
  %13 = load ptr, ptr %3, align 8, !tbaa !77
  call void @init_blend_func_12_16bit(ptr noundef %13) #14
  br label %20

14:                                               ; preds = %2
  %15 = load ptr, ptr %3, align 8, !tbaa !77
  call void @init_blend_func_14_16bit(ptr noundef %15) #14
  br label %20

16:                                               ; preds = %2
  %17 = load ptr, ptr %3, align 8, !tbaa !77
  call void @init_blend_func_16_16bit(ptr noundef %17) #14
  br label %20

18:                                               ; preds = %2
  %19 = load ptr, ptr %3, align 8, !tbaa !77
  call void @init_blend_func_32_32bit(ptr noundef %19) #14
  br label %20

20:                                               ; preds = %2, %18, %16, %14, %12, %10, %8, %6
  %21 = load ptr, ptr %3, align 8, !tbaa !77
  %22 = getelementptr inbounds nuw %struct.FilterParams, ptr %21, i32 0, i32 1
  %23 = load double, ptr %22, align 8, !tbaa !82
  %24 = fcmp nsz oeq double %23, 0.000000e+00
  br i1 %24, label %25, label %42

25:                                               ; preds = %20
  %26 = load ptr, ptr %3, align 8, !tbaa !77
  %27 = getelementptr inbounds nuw %struct.FilterParams, ptr %26, i32 0, i32 0
  %28 = load i32, ptr %27, align 8, !tbaa !80
  %29 = icmp ne i32 %28, 0
  br i1 %29, label %30, label %42

30:                                               ; preds = %25
  %31 = load i32, ptr %4, align 4, !tbaa !37
  %32 = icmp sgt i32 %31, 8
  br i1 %32, label %33, label %37

33:                                               ; preds = %30
  %34 = load i32, ptr %4, align 4, !tbaa !37
  %35 = icmp sgt i32 %34, 16
  %36 = select i1 %35, ptr @blend_copytop_32, ptr @blend_copytop_16
  br label %38

37:                                               ; preds = %30
  br label %38

38:                                               ; preds = %37, %33
  %39 = phi ptr [ %36, %33 ], [ @blend_copytop_8, %37 ]
  %40 = load ptr, ptr %3, align 8, !tbaa !77
  %41 = getelementptr inbounds nuw %struct.FilterParams, ptr %40, i32 0, i32 4
  store ptr %39, ptr %41, align 8, !tbaa !86
  br label %84

42:                                               ; preds = %25, %20
  %43 = load ptr, ptr %3, align 8, !tbaa !77
  %44 = getelementptr inbounds nuw %struct.FilterParams, ptr %43, i32 0, i32 0
  %45 = load i32, ptr %44, align 8, !tbaa !80
  %46 = icmp eq i32 %45, 0
  br i1 %46, label %47, label %83

47:                                               ; preds = %42
  %48 = load ptr, ptr %3, align 8, !tbaa !77
  %49 = getelementptr inbounds nuw %struct.FilterParams, ptr %48, i32 0, i32 1
  %50 = load double, ptr %49, align 8, !tbaa !82
  %51 = fcmp nsz oeq double %50, 1.000000e+00
  br i1 %51, label %52, label %64

52:                                               ; preds = %47
  %53 = load i32, ptr %4, align 4, !tbaa !37
  %54 = icmp sgt i32 %53, 8
  br i1 %54, label %55, label %59

55:                                               ; preds = %52
  %56 = load i32, ptr %4, align 4, !tbaa !37
  %57 = icmp sgt i32 %56, 16
  %58 = select i1 %57, ptr @blend_copytop_32, ptr @blend_copytop_16
  br label %60

59:                                               ; preds = %52
  br label %60

60:                                               ; preds = %59, %55
  %61 = phi ptr [ %58, %55 ], [ @blend_copytop_8, %59 ]
  %62 = load ptr, ptr %3, align 8, !tbaa !77
  %63 = getelementptr inbounds nuw %struct.FilterParams, ptr %62, i32 0, i32 4
  store ptr %61, ptr %63, align 8, !tbaa !86
  br label %82

64:                                               ; preds = %47
  %65 = load ptr, ptr %3, align 8, !tbaa !77
  %66 = getelementptr inbounds nuw %struct.FilterParams, ptr %65, i32 0, i32 1
  %67 = load double, ptr %66, align 8, !tbaa !82
  %68 = fcmp nsz oeq double %67, 0.000000e+00
  br i1 %68, label %69, label %81

69:                                               ; preds = %64
  %70 = load i32, ptr %4, align 4, !tbaa !37
  %71 = icmp sgt i32 %70, 8
  br i1 %71, label %72, label %76

72:                                               ; preds = %69
  %73 = load i32, ptr %4, align 4, !tbaa !37
  %74 = icmp sgt i32 %73, 16
  %75 = select i1 %74, ptr @blend_copybottom_32, ptr @blend_copybottom_16
  br label %77

76:                                               ; preds = %69
  br label %77

77:                                               ; preds = %76, %72
  %78 = phi ptr [ %75, %72 ], [ @blend_copybottom_8, %76 ]
  %79 = load ptr, ptr %3, align 8, !tbaa !77
  %80 = getelementptr inbounds nuw %struct.FilterParams, ptr %79, i32 0, i32 4
  store ptr %78, ptr %80, align 8, !tbaa !86
  br label %81

81:                                               ; preds = %77, %64
  br label %82

82:                                               ; preds = %81, %60
  br label %83

83:                                               ; preds = %82, %42
  br label %84

84:                                               ; preds = %83, %38
  ret void
}

; Function Attrs: nounwind uwtable
define internal i32 @config_params(ptr noundef %0) #0 {
  %2 = alloca i32, align 4
  %3 = alloca ptr, align 8
  %4 = alloca ptr, align 8
  %5 = alloca i32, align 4
  %6 = alloca i32, align 4
  %7 = alloca i32, align 4
  %8 = alloca ptr, align 8
  %9 = alloca i32, align 4
  store ptr %0, ptr %3, align 8, !tbaa !4
  call void @llvm.lifetime.start.p0(i64 8, ptr %4) #12
  %10 = load ptr, ptr %3, align 8, !tbaa !4
  %11 = getelementptr inbounds nuw %struct.AVFilterContext, ptr %10, i32 0, i32 9
  %12 = load ptr, ptr %11, align 8, !tbaa !9
  store ptr %12, ptr %4, align 8, !tbaa !22
  call void @llvm.lifetime.start.p0(i64 4, ptr %5) #12
  call void @llvm.lifetime.start.p0(i64 4, ptr %6) #12
  store i32 0, ptr %6, align 4, !tbaa !37
  br label %13

13:                                               ; preds = %159, %1
  %14 = load i32, ptr %6, align 4, !tbaa !37
  %15 = sext i32 %14 to i64
  %16 = icmp ult i64 %15, 4
  br i1 %16, label %18, label %17

17:                                               ; preds = %13
  store i32 2, ptr %7, align 4
  br label %162

18:                                               ; preds = %13
  call void @llvm.lifetime.start.p0(i64 8, ptr %8) #12
  %19 = load ptr, ptr %4, align 8, !tbaa !22
  %20 = getelementptr inbounds nuw %struct.BlendContext, ptr %19, i32 0, i32 9
  %21 = load i32, ptr %6, align 4, !tbaa !37
  %22 = sext i32 %21 to i64
  %23 = getelementptr inbounds [4 x %struct.FilterParams], ptr %20, i64 0, i64 %22
  store ptr %23, ptr %8, align 8, !tbaa !77
  %24 = load ptr, ptr %4, align 8, !tbaa !22
  %25 = getelementptr inbounds nuw %struct.BlendContext, ptr %24, i32 0, i32 6
  %26 = load i32, ptr %25, align 8, !tbaa !79
  %27 = icmp sge i32 %26, 0
  br i1 %27, label %28, label %34

28:                                               ; preds = %18
  %29 = load ptr, ptr %4, align 8, !tbaa !22
  %30 = getelementptr inbounds nuw %struct.BlendContext, ptr %29, i32 0, i32 6
  %31 = load i32, ptr %30, align 8, !tbaa !79
  %32 = load ptr, ptr %8, align 8, !tbaa !77
  %33 = getelementptr inbounds nuw %struct.FilterParams, ptr %32, i32 0, i32 0
  store i32 %31, ptr %33, align 8, !tbaa !80
  br label %34

34:                                               ; preds = %28, %18
  %35 = load ptr, ptr %4, align 8, !tbaa !22
  %36 = getelementptr inbounds nuw %struct.BlendContext, ptr %35, i32 0, i32 7
  %37 = load double, ptr %36, align 8, !tbaa !81
  %38 = fcmp nsz olt double %37, 1.000000e+00
  br i1 %38, label %39, label %45

39:                                               ; preds = %34
  %40 = load ptr, ptr %4, align 8, !tbaa !22
  %41 = getelementptr inbounds nuw %struct.BlendContext, ptr %40, i32 0, i32 7
  %42 = load double, ptr %41, align 8, !tbaa !81
  %43 = load ptr, ptr %8, align 8, !tbaa !77
  %44 = getelementptr inbounds nuw %struct.FilterParams, ptr %43, i32 0, i32 1
  store double %42, ptr %44, align 8, !tbaa !82
  br label %45

45:                                               ; preds = %39, %34
  %46 = load ptr, ptr %8, align 8, !tbaa !77
  %47 = load ptr, ptr %4, align 8, !tbaa !22
  %48 = getelementptr inbounds nuw %struct.BlendContext, ptr %47, i32 0, i32 8
  %49 = load i32, ptr %48, align 8, !tbaa !75
  call void @ff_blend_init(ptr noundef %46, i32 noundef %49)
  %50 = load ptr, ptr %4, align 8, !tbaa !22
  %51 = getelementptr inbounds nuw %struct.BlendContext, ptr %50, i32 0, i32 5
  %52 = load ptr, ptr %51, align 8, !tbaa !83
  %53 = icmp ne ptr %52, null
  br i1 %53, label %54, label %72

54:                                               ; preds = %45
  %55 = load ptr, ptr %8, align 8, !tbaa !77
  %56 = getelementptr inbounds nuw %struct.FilterParams, ptr %55, i32 0, i32 3
  %57 = load ptr, ptr %56, align 8, !tbaa !84
  %58 = icmp ne ptr %57, null
  br i1 %58, label %72, label %59

59:                                               ; preds = %54
  %60 = load ptr, ptr %4, align 8, !tbaa !22
  %61 = getelementptr inbounds nuw %struct.BlendContext, ptr %60, i32 0, i32 5
  %62 = load ptr, ptr %61, align 8, !tbaa !83
  %63 = call noalias ptr @av_strdup(ptr noundef %62)
  %64 = load ptr, ptr %8, align 8, !tbaa !77
  %65 = getelementptr inbounds nuw %struct.FilterParams, ptr %64, i32 0, i32 3
  store ptr %63, ptr %65, align 8, !tbaa !84
  %66 = load ptr, ptr %8, align 8, !tbaa !77
  %67 = getelementptr inbounds nuw %struct.FilterParams, ptr %66, i32 0, i32 3
  %68 = load ptr, ptr %67, align 8, !tbaa !84
  %69 = icmp ne ptr %68, null
  br i1 %69, label %71, label %70

70:                                               ; preds = %59
  store i32 -12, ptr %2, align 4
  store i32 1, ptr %7, align 4
  br label %156

71:                                               ; preds = %59
  br label %72

72:                                               ; preds = %71, %54, %45
  %73 = load ptr, ptr %8, align 8, !tbaa !77
  %74 = getelementptr inbounds nuw %struct.FilterParams, ptr %73, i32 0, i32 3
  %75 = load ptr, ptr %74, align 8, !tbaa !84
  %76 = icmp ne ptr %75, null
  br i1 %76, label %77, label %155

77:                                               ; preds = %72
  %78 = load ptr, ptr %8, align 8, !tbaa !77
  %79 = getelementptr inbounds nuw %struct.FilterParams, ptr %78, i32 0, i32 2
  %80 = load ptr, ptr %79, align 8, !tbaa !38
  %81 = icmp ne ptr %80, null
  br i1 %81, label %96, label %82

82:                                               ; preds = %77
  %83 = load ptr, ptr %4, align 8, !tbaa !22
  %84 = getelementptr inbounds nuw %struct.BlendContext, ptr %83, i32 0, i32 12
  %85 = load i32, ptr %84, align 8, !tbaa !35
  %86 = sext i32 %85 to i64
  %87 = call noalias ptr @av_calloc(i64 noundef %86, i64 noundef 8)
  %88 = load ptr, ptr %8, align 8, !tbaa !77
  %89 = getelementptr inbounds nuw %struct.FilterParams, ptr %88, i32 0, i32 2
  store ptr %87, ptr %89, align 8, !tbaa !38
  %90 = load ptr, ptr %8, align 8, !tbaa !77
  %91 = getelementptr inbounds nuw %struct.FilterParams, ptr %90, i32 0, i32 2
  %92 = load ptr, ptr %91, align 8, !tbaa !38
  %93 = icmp ne ptr %92, null
  br i1 %93, label %95, label %94

94:                                               ; preds = %82
  store i32 -12, ptr %2, align 4
  store i32 1, ptr %7, align 4
  br label %156

95:                                               ; preds = %82
  br label %96

96:                                               ; preds = %95, %77
  call void @llvm.lifetime.start.p0(i64 4, ptr %9) #12
  store i32 0, ptr %9, align 4, !tbaa !37
  br label %97

97:                                               ; preds = %134, %96
  %98 = load i32, ptr %9, align 4, !tbaa !37
  %99 = load ptr, ptr %4, align 8, !tbaa !22
  %100 = getelementptr inbounds nuw %struct.BlendContext, ptr %99, i32 0, i32 12
  %101 = load i32, ptr %100, align 8, !tbaa !35
  %102 = icmp slt i32 %98, %101
  br i1 %102, label %104, label %103

103:                                              ; preds = %97
  store i32 5, ptr %7, align 4
  br label %137

104:                                              ; preds = %97
  %105 = load ptr, ptr %8, align 8, !tbaa !77
  %106 = getelementptr inbounds nuw %struct.FilterParams, ptr %105, i32 0, i32 2
  %107 = load ptr, ptr %106, align 8, !tbaa !38
  %108 = load i32, ptr %9, align 4, !tbaa !37
  %109 = sext i32 %108 to i64
  %110 = getelementptr inbounds ptr, ptr %107, i64 %109
  %111 = load ptr, ptr %110, align 8, !tbaa !41
  call void @av_expr_free(ptr noundef %111)
  %112 = load ptr, ptr %8, align 8, !tbaa !77
  %113 = getelementptr inbounds nuw %struct.FilterParams, ptr %112, i32 0, i32 2
  %114 = load ptr, ptr %113, align 8, !tbaa !38
  %115 = load i32, ptr %9, align 4, !tbaa !37
  %116 = sext i32 %115 to i64
  %117 = getelementptr inbounds ptr, ptr %114, i64 %116
  store ptr null, ptr %117, align 8, !tbaa !41
  %118 = load ptr, ptr %8, align 8, !tbaa !77
  %119 = getelementptr inbounds nuw %struct.FilterParams, ptr %118, i32 0, i32 2
  %120 = load ptr, ptr %119, align 8, !tbaa !38
  %121 = load i32, ptr %9, align 4, !tbaa !37
  %122 = sext i32 %121 to i64
  %123 = getelementptr inbounds ptr, ptr %120, i64 %122
  %124 = load ptr, ptr %8, align 8, !tbaa !77
  %125 = getelementptr inbounds nuw %struct.FilterParams, ptr %124, i32 0, i32 3
  %126 = load ptr, ptr %125, align 8, !tbaa !84
  %127 = load ptr, ptr %3, align 8, !tbaa !4
  %128 = call i32 @av_expr_parse(ptr noundef %123, ptr noundef %126, ptr noundef @var_names, ptr noundef null, ptr noundef null, ptr noundef null, ptr noundef null, i32 noundef 0, ptr noundef %127)
  store i32 %128, ptr %5, align 4, !tbaa !37
  %129 = load i32, ptr %5, align 4, !tbaa !37
  %130 = icmp slt i32 %129, 0
  br i1 %130, label %131, label %133

131:                                              ; preds = %104
  %132 = load i32, ptr %5, align 4, !tbaa !37
  store i32 %132, ptr %2, align 4
  store i32 1, ptr %7, align 4
  br label %137

133:                                              ; preds = %104
  br label %134

134:                                              ; preds = %133
  %135 = load i32, ptr %9, align 4, !tbaa !37
  %136 = add nsw i32 %135, 1
  store i32 %136, ptr %9, align 4, !tbaa !37
  br label %97, !llvm.loop !85

137:                                              ; preds = %131, %103
  call void @llvm.lifetime.end.p0(i64 4, ptr %9) #12
  %138 = load i32, ptr %7, align 4
  switch i32 %138, label %156 [
    i32 5, label %139
  ]

139:                                              ; preds = %137
  %140 = load ptr, ptr %4, align 8, !tbaa !22
  %141 = getelementptr inbounds nuw %struct.BlendContext, ptr %140, i32 0, i32 8
  %142 = load i32, ptr %141, align 8, !tbaa !75
  %143 = icmp sgt i32 %142, 8
  br i1 %143, label %144, label %150

144:                                              ; preds = %139
  %145 = load ptr, ptr %4, align 8, !tbaa !22
  %146 = getelementptr inbounds nuw %struct.BlendContext, ptr %145, i32 0, i32 8
  %147 = load i32, ptr %146, align 8, !tbaa !75
  %148 = icmp sgt i32 %147, 16
  %149 = select i1 %148, ptr @blend_expr_32bit, ptr @blend_expr_16bit
  br label %151

150:                                              ; preds = %139
  br label %151

151:                                              ; preds = %150, %144
  %152 = phi ptr [ %149, %144 ], [ @blend_expr_8bit, %150 ]
  %153 = load ptr, ptr %8, align 8, !tbaa !77
  %154 = getelementptr inbounds nuw %struct.FilterParams, ptr %153, i32 0, i32 4
  store ptr %152, ptr %154, align 8, !tbaa !86
  br label %155

155:                                              ; preds = %151, %72
  store i32 0, ptr %7, align 4
  br label %156

156:                                              ; preds = %155, %137, %94, %70
  call void @llvm.lifetime.end.p0(i64 8, ptr %8) #12
  %157 = load i32, ptr %7, align 4
  switch i32 %157, label %162 [
    i32 0, label %158
  ]

158:                                              ; preds = %156
  br label %159

159:                                              ; preds = %158
  %160 = load i32, ptr %6, align 4, !tbaa !37
  %161 = add nsw i32 %160, 1
  store i32 %161, ptr %6, align 4, !tbaa !37
  br label %13, !llvm.loop !87

162:                                              ; preds = %156, %17
  call void @llvm.lifetime.end.p0(i64 4, ptr %6) #12
  %163 = load i32, ptr %7, align 4
  switch i32 %163, label %165 [
    i32 2, label %164
  ]

164:                                              ; preds = %162
  store i32 0, ptr %2, align 4
  store i32 1, ptr %7, align 4
  br label %165

165:                                              ; preds = %164, %162
  call void @llvm.lifetime.end.p0(i64 4, ptr %5) #12
  call void @llvm.lifetime.end.p0(i64 8, ptr %4) #12
  %166 = load i32, ptr %2, align 4
  ret i32 %166
}