; Function Attrs: nounwind uwtable
define internal fastcc range(i32 -2147483648, 1) i32 @config_params(ptr noundef %0) unnamed_addr #0 {
  %2 = getelementptr inbounds nuw i8, ptr %0, i64 72
  %3 = load ptr, ptr %2, align 8, !tbaa !4
  %4 = getelementptr inbounds nuw i8, ptr %3, i64 152
  %5 = getelementptr inbounds nuw i8, ptr %3, i64 128
  %6 = getelementptr inbounds nuw i8, ptr %3, i64 136
  %7 = getelementptr inbounds nuw i8, ptr %3, i64 144
  %8 = getelementptr inbounds nuw i8, ptr %3, i64 120
  %9 = getelementptr inbounds nuw i8, ptr %3, i64 328
  br label %10

10:                                               ; preds = %1, %85
  %indvars.iv72 = phi i64 [ 0, %1 ], [ %indvars.iv.next73, %85 ]
  %11 = getelementptr inbounds nuw [4 x %struct.FilterParams], ptr %4, i64 0, i64 %indvars.iv72
  %12 = load i32, ptr %5, align 8, !tbaa !67
  %13 = icmp sgt i32 %12, -1
  br i1 %13, label %14, label %15

14:                                               ; preds = %10
  store i32 %12, ptr %11, align 8, !tbaa !68
  br label %15

15:                                               ; preds = %14, %10
  %16 = load double, ptr %6, align 8, !tbaa !69
  %17 = fcmp nsz olt double %16, 1.000000e+00
  br i1 %17, label %18, label %20

18:                                               ; preds = %15
  %19 = getelementptr inbounds nuw i8, ptr %11, i64 8
  store double %16, ptr %19, align 8, !tbaa !70
  br label %20

20:                                               ; preds = %18, %15
  %21 = load i32, ptr %7, align 8, !tbaa !65
  switch i32 %21, label %29 [
    i32 8, label %22
    i32 9, label %23
    i32 10, label %24
    i32 12, label %25
    i32 14, label %26
    i32 16, label %27
    i32 32, label %28
  ]

22:                                               ; preds = %20
  tail call fastcc void @init_blend_func_8_8bit(ptr noundef nonnull %11) #14
  br label %29

23:                                               ; preds = %20
  tail call fastcc void @init_blend_func_9_16bit(ptr noundef nonnull %11) #14
  br label %29

24:                                               ; preds = %20
  tail call fastcc void @init_blend_func_10_16bit(ptr noundef nonnull %11) #14
  br label %29

25:                                               ; preds = %20
  tail call fastcc void @init_blend_func_12_16bit(ptr noundef nonnull %11) #14
  br label %29

26:                                               ; preds = %20
  tail call fastcc void @init_blend_func_14_16bit(ptr noundef nonnull %11) #14
  br label %29

27:                                               ; preds = %20
  tail call fastcc void @init_blend_func_16_16bit(ptr noundef nonnull %11) #14
  br label %29

28:                                               ; preds = %20
  tail call fastcc void @init_blend_func_32_32bit(ptr noundef nonnull %11) #14
  br label %29

29:                                               ; preds = %28, %27, %26, %25, %24, %23, %22, %20
  %30 = getelementptr inbounds nuw i8, ptr %11, i64 8
  %31 = load double, ptr %30, align 8, !tbaa !70
  %32 = fcmp nsz oeq double %31, 0.000000e+00
  %33 = load i32, ptr %11, align 8, !tbaa !68
  %.not.i = icmp eq i32 %33, 0
  br i1 %32, label %34, label %40

34:                                               ; preds = %29
  br i1 %.not.i, label %.thread.i, label %35

35:                                               ; preds = %34
  %36 = icmp sgt i32 %21, 8
  %37 = icmp samesign ugt i32 %21, 16
  %38 = select i1 %37, ptr @blend_copytop_32, ptr @blend_copytop_16
  %39 = select i1 %36, ptr %38, ptr @blend_copytop_8
  br label %.thread22.sink.split.i

40:                                               ; preds = %29
  %41 = fcmp nsz oeq double %31, 1.000000e+00
  %or.cond.i = and i1 %41, %.not.i
  br i1 %or.cond.i, label %43, label %ff_blend_init.exit

.thread.i:                                        ; preds = %34
  %42 = fcmp nsz oeq double %31, 1.000000e+00
  br i1 %42, label %43, label %48

43:                                               ; preds = %.thread.i, %40
  %44 = icmp sgt i32 %21, 8
  %45 = icmp samesign ugt i32 %21, 16
  %46 = select i1 %45, ptr @blend_copytop_32, ptr @blend_copytop_16
  %47 = select i1 %44, ptr %46, ptr @blend_copytop_8
  br label %.thread22.sink.split.i

48:                                               ; preds = %.thread.i
  %49 = icmp sgt i32 %21, 8
  %50 = icmp samesign ugt i32 %21, 16
  %51 = select i1 %50, ptr @blend_copybottom_32, ptr @blend_copybottom_16
  %52 = select i1 %49, ptr %51, ptr @blend_copybottom_8
  br label %.thread22.sink.split.i

.thread22.sink.split.i:                           ; preds = %48, %43, %35
  %.sink.i = phi ptr [ %52, %48 ], [ %47, %43 ], [ %39, %35 ]
  %53 = getelementptr inbounds nuw i8, ptr %11, i64 32
  store ptr %.sink.i, ptr %53, align 8, !tbaa !71
  br label %ff_blend_init.exit

ff_blend_init.exit:                               ; preds = %40, %.thread22.sink.split.i
  %54 = load ptr, ptr %8, align 8, !tbaa !72
  %.not = icmp eq ptr %54, null
  %.phi.trans.insert = getelementptr inbounds nuw i8, ptr %11, i64 24
  %.pre = load ptr, ptr %.phi.trans.insert, align 8, !tbaa !73
  %55 = icmp eq ptr %.pre, null
  br i1 %.not, label %59, label %56

56:                                               ; preds = %ff_blend_init.exit
  br i1 %55, label %57, label %.thread

57:                                               ; preds = %56
  %58 = tail call noalias ptr @av_strdup(ptr noundef nonnull %54) #12
  store ptr %58, ptr %.phi.trans.insert, align 8, !tbaa !73
  %.not56 = icmp eq ptr %58, null
  br i1 %.not56, label %.thread62, label %.thread

59:                                               ; preds = %ff_blend_init.exit
  br i1 %55, label %85, label %.thread

.thread:                                          ; preds = %56, %57, %59
  %60 = getelementptr inbounds nuw i8, ptr %11, i64 24
  %61 = getelementptr inbounds nuw i8, ptr %11, i64 16
  %62 = load ptr, ptr %61, align 8, !tbaa !34
  %.not58 = icmp eq ptr %62, null
  %.pre77 = load i32, ptr %9, align 8, !tbaa !32
  br i1 %.not58, label %63, label %66

63:                                               ; preds = %.thread
  %64 = sext i32 %.pre77 to i64
  %65 = tail call noalias ptr @av_calloc(i64 noundef %64, i64 noundef 8) #12
  store ptr %65, ptr %61, align 8, !tbaa !34
  %.not59 = icmp eq ptr %65, null
  br i1 %.not59, label %.thread62, label %._crit_edge75

._crit_edge75:                                    ; preds = %63
  %.pre76 = load i32, ptr %9, align 8, !tbaa !32
  br label %66

66:                                               ; preds = %._crit_edge75, %.thread
  %67 = phi i32 [ %.pre76, %._crit_edge75 ], [ %.pre77, %.thread ]
  %.not6066 = icmp sgt i32 %67, 0
  br i1 %.not6066, label %.lr.ph, label %._crit_edge

68:                                               ; preds = %.lr.ph
  %indvars.iv.next = add nuw nsw i64 %indvars.iv, 1
  %69 = load i32, ptr %9, align 8, !tbaa !32
  %70 = sext i32 %69 to i64
  %.not60 = icmp slt i64 %indvars.iv.next, %70
  br i1 %.not60, label %.lr.ph, label %._crit_edge, !llvm.loop !74

.lr.ph:                                           ; preds = %66, %68
  %indvars.iv = phi i64 [ %indvars.iv.next, %68 ], [ 0, %66 ]
  %71 = load ptr, ptr %61, align 8, !tbaa !34
  %72 = getelementptr inbounds nuw ptr, ptr %71, i64 %indvars.iv
  %73 = load ptr, ptr %72, align 8, !tbaa !37
  tail call void @av_expr_free(ptr noundef %73) #12
  %74 = load ptr, ptr %61, align 8, !tbaa !34
  %75 = getelementptr inbounds nuw ptr, ptr %74, i64 %indvars.iv
  store ptr null, ptr %75, align 8, !tbaa !37
  %76 = load ptr, ptr %60, align 8, !tbaa !73
  %77 = tail call i32 @av_expr_parse(ptr noundef nonnull %75, ptr noundef %76, ptr noundef nonnull @var_names, ptr noundef null, ptr noundef null, ptr noundef null, ptr noundef null, i32 noundef 0, ptr noundef %0) #12
  %78 = icmp slt i32 %77, 0
  br i1 %78, label %.thread62, label %68

._crit_edge:                                      ; preds = %68, %66
  %79 = load i32, ptr %7, align 8, !tbaa !65
  %80 = icmp sgt i32 %79, 8
  %81 = icmp sgt i32 %79, 16
  %82 = select i1 %81, ptr @blend_expr_32bit, ptr @blend_expr_16bit
  %83 = select i1 %80, ptr %82, ptr @blend_expr_8bit
  %84 = getelementptr inbounds nuw i8, ptr %11, i64 32
  store ptr %83, ptr %84, align 8, !tbaa !71
  br label %85

85:                                               ; preds = %._crit_edge, %59
  %indvars.iv.next73 = add nuw nsw i64 %indvars.iv72, 1
  %exitcond = icmp eq i64 %indvars.iv.next73, 4
  br i1 %exitcond, label %.thread62, label %10, !llvm.loop !75

.thread62:                                        ; preds = %63, %57, %85, %.lr.ph
  %spec.select = phi i32 [ %77, %.lr.ph ], [ -12, %57 ], [ -12, %63 ], [ 0, %85 ]
  ret i32 %spec.select
}